target datalayout = "e-m:e-p270:32:32-p271:32:32-p272:64:64-i64:64-i128:128-f80:128-n8:16:32:64-S128"
target triple = "x86_64-pc-linux-gnu"

%"struct.std::atomic" = type { %"struct.std::__atomic_base" }
%"struct.std::__atomic_base" = type { i64 }
%struct.mi_heap_s = type { ptr, %"struct.std::atomic.4", i64, i32, i64, [2 x i64], %struct.mi_random_cxt_s, i64, i64, i64, i64, i64, ptr, i8, i8, [129 x ptr], [75 x %struct.mi_page_queue_s] }
%"struct.std::atomic.4" = type { %"struct.std::__atomic_base.5" }
%"struct.std::__atomic_base.5" = type { ptr }
%struct.mi_random_cxt_s = type { [16 x i32], [16 x i32], i32, i8 }
%struct.mi_page_queue_s = type { ptr, ptr, i64 }
%union.mi_page_flags_s = type { i8 }
%struct.mi_page_s = type { i32, i32, i8, i16, i16, %union.mi_page_flags_s, i8, ptr, ptr, i16, i8, i8, i64, ptr, %"struct.std::atomic", %"struct.std::atomic", ptr, ptr, [1 x ptr] }
%struct.mi_block_s = type { i64 }

@_mi_heap_default = hidden thread_local(localexec) global ptr @_mi_heap_empty, align 8

; Function Attrs: inlinehint mustprogress nounwind uwtable
define internal void @_ZL11_mi_memzeroPvm(ptr noundef %0, i64 noundef %1) #3 {
  %3 = alloca ptr, align 8
  %4 = alloca i64, align 8
  store ptr %0, ptr %3, align 8, !tbaa !8
  store i64 %1, ptr %4, align 8, !tbaa !18
  %5 = load ptr, ptr %3, align 8, !tbaa !8
  %6 = load i64, ptr %4, align 8, !tbaa !18
  call void @llvm.memset.p0.i64(ptr align 1 %5, i8 0, i64 %6, i1 false)
  ret void
}

; Function Attrs: inlinehint mustprogress nounwind uwtable
define internal noundef ptr @_ZL14mi_block_nextxPKvPK10mi_block_sPKm(ptr noundef %0, ptr noundef %1, ptr noundef %2) #3 {
  %4 = alloca ptr, align 8
  %5 = alloca ptr, align 8
  %6 = alloca ptr, align 8
  %7 = alloca ptr, align 8
  store ptr %0, ptr %4, align 8, !tbaa !8
  store ptr %1, ptr %5, align 8, !tbaa !27
  store ptr %2, ptr %6, align 8, !tbaa !46
  call void @llvm.lifetime.start.p0(i64 8, ptr %7) #19
  %8 = load ptr, ptr %5, align 8, !tbaa !27
  %9 = getelementptr inbounds nuw %struct.mi_block_s, ptr %8, i32 0, i32 0
  %10 = load i64, ptr %9, align 8, !tbaa !44
  %11 = inttoptr i64 %10 to ptr
  store ptr %11, ptr %7, align 8, !tbaa !27
  %12 = load ptr, ptr %7, align 8, !tbaa !27
  call void @llvm.lifetime.end.p0(i64 8, ptr %7) #19
  ret ptr %12
}

; Function Attrs: inlinehint mustprogress nounwind uwtable
define internal void @_ZL19_mi_memzero_alignedPvm(ptr noundef %0, i64 noundef %1) #3 {
  %3 = alloca ptr, align 8
  %4 = alloca i64, align 8
  %5 = alloca ptr, align 8
  store ptr %0, ptr %3, align 8, !tbaa !8
  store i64 %1, ptr %4, align 8, !tbaa !18
  call void @llvm.lifetime.start.p0(i64 8, ptr %5) #19
  %6 = load ptr, ptr %3, align 8, !tbaa !8
  call void @llvm.assume(i1 true) [ "align"(ptr %6, i64 8) ]
  store ptr %6, ptr %5, align 8, !tbaa !8
  %7 = load ptr, ptr %5, align 8, !tbaa !8
  %8 = load i64, ptr %4, align 8, !tbaa !18
  call void @_ZL11_mi_memzeroPvm(ptr noundef %7, i64 noundef %8)
  call void @llvm.lifetime.end.p0(i64 8, ptr %5) #19
  ret void
}

; Function Attrs: inlinehint mustprogress uwtable
define internal noundef ptr @_ZL13mi_block_nextPK9mi_page_sPK10mi_block_s(ptr noundef %0, ptr noundef %1) #6 {
  %3 = alloca ptr, align 8
  %4 = alloca ptr, align 8
  store ptr %0, ptr %3, align 8, !tbaa !3
  store ptr %1, ptr %4, align 8, !tbaa !27
  %5 = load ptr, ptr %3, align 8, !tbaa !3
  %6 = load ptr, ptr %4, align 8, !tbaa !27
  %7 = call noundef ptr @_ZL14mi_block_nextxPKvPK10mi_block_sPKm(ptr noundef %5, ptr noundef %6, ptr noundef null)
  ret ptr %7
}

; Function Attrs: inlinehint mustprogress nounwind uwtable
define internal noundef i64 @_ZL19_mi_wsize_from_sizem(i64 noundef %0) #3 {
  %2 = alloca i64, align 8
  store i64 %0, ptr %2, align 8, !tbaa !18
  %3 = load i64, ptr %2, align 8, !tbaa !18
  %4 = add i64 %3, 8
  %5 = sub i64 %4, 1
  %6 = udiv i64 %5, 8
  ret i64 %6
}

; Function Attrs: inlinehint mustprogress nounwind uwtable
define linkonce_odr hidden noundef ptr @_Z20_mi_page_malloc_zeroP9mi_heap_sP9mi_page_smb(ptr noundef %0, ptr noundef %1, i64 noundef %2, i1 noundef zeroext %3) #3 comdat personality ptr @__gxx_personality_v0 {
  %5 = alloca ptr, align 8
  %6 = alloca ptr, align 8
  %7 = alloca ptr, align 8
  %8 = alloca i64, align 8
  %9 = alloca i8, align 1
  %10 = alloca ptr, align 8
  %11 = alloca i32, align 4
  store ptr %0, ptr %6, align 8, !tbaa !42
  store ptr %1, ptr %7, align 8, !tbaa !3
  store i64 %2, ptr %8, align 8, !tbaa !18
  %12 = zext i1 %3 to i8
  store i8 %12, ptr %9, align 1, !tbaa !23
  call void @llvm.lifetime.start.p0(i64 8, ptr %10) #19
  %13 = load ptr, ptr %7, align 8, !tbaa !3
  %14 = getelementptr inbounds nuw %struct.mi_page_s, ptr %13, i32 0, i32 7
  %15 = load ptr, ptr %14, align 8, !tbaa !40
  store ptr %15, ptr %10, align 8, !tbaa !27
  %16 = load ptr, ptr %10, align 8, !tbaa !27
  %17 = icmp eq ptr %16, null
  %18 = xor i1 %17, true
  %19 = xor i1 %18, true
  %20 = zext i1 %19 to i64
  %21 = call i64 @llvm.expect.i64(i64 %20, i64 0)
  %22 = icmp ne i64 %21, 0
  br i1 %22, label %23, label %29

23:                                               ; preds = %4
  %24 = load ptr, ptr %6, align 8, !tbaa !42
  %25 = load i64, ptr %8, align 8, !tbaa !18
  %26 = load i8, ptr %9, align 1, !tbaa !23, !range !25, !noundef !26
  %27 = trunc i8 %26 to i1
  %28 = call noalias noundef ptr @_Z18_mi_malloc_genericP9mi_heap_smbm(ptr noundef %24, i64 noundef %25, i1 noundef zeroext %27, i64 noundef 0) #19
  store ptr %28, ptr %5, align 8
  store i32 1, ptr %11, align 4
  br label %66

29:                                               ; preds = %4
  %30 = load ptr, ptr %7, align 8, !tbaa !3
  %31 = load ptr, ptr %10, align 8, !tbaa !27
  %32 = invoke noundef ptr @_ZL13mi_block_nextPK9mi_page_sPK10mi_block_s(ptr noundef %30, ptr noundef %31)
          to label %33 unwind label %68

33:                                               ; preds = %29
  %34 = load ptr, ptr %7, align 8, !tbaa !3
  %35 = getelementptr inbounds nuw %struct.mi_page_s, ptr %34, i32 0, i32 7
  store ptr %32, ptr %35, align 8, !tbaa !40
  %36 = load ptr, ptr %7, align 8, !tbaa !3
  %37 = getelementptr inbounds nuw %struct.mi_page_s, ptr %36, i32 0, i32 9
  %38 = load i16, ptr %37, align 8, !tbaa !35
  %39 = add i16 %38, 1
  store i16 %39, ptr %37, align 8, !tbaa !35
  %40 = load i8, ptr %9, align 1, !tbaa !23, !range !25, !noundef !26
  %41 = trunc i8 %40 to i1
  %42 = xor i1 %41, true
  %43 = xor i1 %42, true
  %44 = zext i1 %43 to i64
  %45 = call i64 @llvm.expect.i64(i64 %44, i64 0)
  %46 = icmp ne i64 %45, 0
  br i1 %46, label %47, label %64

47:                                               ; preds = %33
  %48 = load ptr, ptr %7, align 8, !tbaa !3
  %49 = getelementptr inbounds nuw %struct.mi_page_s, ptr %48, i32 0, i32 6
  %50 = load i8, ptr %49, align 1
  %51 = and i8 %50, 1
  %52 = icmp ne i8 %51, 0
  br i1 %52, label %53, label %56

53:                                               ; preds = %47
  %54 = load ptr, ptr %10, align 8, !tbaa !27
  %55 = getelementptr inbounds nuw %struct.mi_block_s, ptr %54, i32 0, i32 0
  store i64 0, ptr %55, align 8, !tbaa !44
  br label %63

56:                                               ; preds = %47
  %57 = load ptr, ptr %10, align 8, !tbaa !27
  %58 = load ptr, ptr %7, align 8, !tbaa !3
  %59 = getelementptr inbounds nuw %struct.mi_page_s, ptr %58, i32 0, i32 12
  %60 = load i64, ptr %59, align 8, !tbaa !20
  %61 = sub i64 %60, 0
  invoke void @_ZL19_mi_memzero_alignedPvm(ptr noundef %57, i64 noundef %61)
          to label %62 unwind label %68

62:                                               ; preds = %56
  br label %63

63:                                               ; preds = %62, %53
  br label %64

64:                                               ; preds = %63, %33
  %65 = load ptr, ptr %10, align 8, !tbaa !27
  store ptr %65, ptr %5, align 8
  store i32 1, ptr %11, align 4
  br label %66

66:                                               ; preds = %64, %23
  call void @llvm.lifetime.end.p0(i64 8, ptr %10) #19
  %67 = load ptr, ptr %5, align 8
  ret ptr %67

68:                                               ; preds = %56, %29
  %69 = landingpad { ptr, i32 }
          catch ptr null
  %70 = extractvalue { ptr, i32 } %69, 0
  call void @__clang_call_terminate(ptr %70) #20
  unreachable
}

; Function Attrs: inlinehint mustprogress uwtable
define internal noundef ptr @_ZL28_mi_heap_get_free_small_pageP9mi_heap_sm(ptr noundef %0, i64 noundef %1) #6 {
  %3 = alloca ptr, align 8
  %4 = alloca i64, align 8
  %5 = alloca i64, align 8
  store ptr %0, ptr %3, align 8, !tbaa !42
  store i64 %1, ptr %4, align 8, !tbaa !18
  call void @llvm.lifetime.start.p0(i64 8, ptr %5) #19
  %6 = load i64, ptr %4, align 8, !tbaa !18
  %7 = call noundef i64 @_ZL19_mi_wsize_from_sizem(i64 noundef %6)
  store i64 %7, ptr %5, align 8, !tbaa !18
  %8 = load ptr, ptr %3, align 8, !tbaa !42
  %9 = getelementptr inbounds nuw %struct.mi_heap_s, ptr %8, i32 0, i32 15
  %10 = load i64, ptr %5, align 8, !tbaa !18
  %11 = getelementptr inbounds nuw [129 x ptr], ptr %9, i64 0, i64 %10
  %12 = load ptr, ptr %11, align 8, !tbaa !3
  call void @llvm.lifetime.end.p0(i64 8, ptr %5) #19
  ret ptr %12
}

; Function Attrs: noinline noreturn nounwind uwtable
define linkonce_odr hidden void @__clang_call_terminate(ptr noundef %0) #7 comdat {
  %2 = call ptr @__cxa_begin_catch(ptr %0) #19
  call void @_ZSt9terminatev() #20
  unreachable
}

; Function Attrs: inlinehint mustprogress nounwind uwtable
define internal noundef ptr @_ZL25mi_heap_malloc_small_zeroP9mi_heap_smb(ptr noundef %0, i64 noundef %1, i1 noundef zeroext %2) #3 personality ptr @__gxx_personality_v0 {
  %4 = alloca ptr, align 8
  %5 = alloca i64, align 8
  %6 = alloca i8, align 1
  %7 = alloca ptr, align 8
  %8 = alloca ptr, align 8
  store ptr %0, ptr %4, align 8, !tbaa !42
  store i64 %1, ptr %5, align 8, !tbaa !18
  %9 = zext i1 %2 to i8
  store i8 %9, ptr %6, align 1, !tbaa !23
  call void @llvm.lifetime.start.p0(i64 8, ptr %7) #19
  %10 = load ptr, ptr %4, align 8, !tbaa !42
  %11 = load i64, ptr %5, align 8, !tbaa !18
  %12 = add i64 %11, 0
  %13 = invoke noundef ptr @_ZL28_mi_heap_get_free_small_pageP9mi_heap_sm(ptr noundef %10, i64 noundef %12)
          to label %14 unwind label %27

14:                                               ; preds = %3
  store ptr %13, ptr %7, align 8, !tbaa !3
  call void @llvm.lifetime.start.p0(i64 8, ptr %8) #19
  %15 = load ptr, ptr %4, align 8, !tbaa !42
  %16 = load ptr, ptr %7, align 8, !tbaa !3
  %17 = load i64, ptr %5, align 8, !tbaa !18
  %18 = add i64 %17, 0
  %19 = load i8, ptr %6, align 1, !tbaa !23, !range !25, !noundef !26
  %20 = trunc i8 %19 to i1
  %21 = call noundef ptr @_Z20_mi_page_malloc_zeroP9mi_heap_sP9mi_page_smb(ptr noundef %15, ptr noundef %16, i64 noundef %18, i1 noundef zeroext %20) #19
  store ptr %21, ptr %8, align 8, !tbaa !8
  %22 = load ptr, ptr %8, align 8, !tbaa !8
  %23 = icmp ne ptr %22, null
  br i1 %23, label %24, label %25

24:                                               ; preds = %14
  br label %25

25:                                               ; preds = %24, %14
  %26 = load ptr, ptr %8, align 8, !tbaa !8
  call void @llvm.lifetime.end.p0(i64 8, ptr %8) #19
  call void @llvm.lifetime.end.p0(i64 8, ptr %7) #19
  ret ptr %26

27:                                               ; preds = %3
  %28 = landingpad { ptr, i32 }
          catch ptr null
  %29 = extractvalue { ptr, i32 } %28, 0
  call void @__clang_call_terminate(ptr %29) #20
  unreachable
}

; Function Attrs: inlinehint mustprogress nounwind uwtable
define internal noundef ptr @_ZL24mi_prim_get_default_heapv() #3 {
  %1 = call align 8 ptr @llvm.threadlocal.address.p0(ptr align 8 @_mi_heap_default)
  %2 = load ptr, ptr %1, align 8, !tbaa !42
  ret ptr %2
}

; Function Attrs: mustprogress nounwind uwtable
define noalias ptr @mi_zalloc_small(i64 noundef %0) #5 personality ptr @__gxx_personality_v0 {
  %2 = alloca i64, align 8
  store i64 %0, ptr %2, align 8, !tbaa !18
  %3 = invoke noundef ptr @_ZL24mi_prim_get_default_heapv()
          to label %4 unwind label %7

4:                                                ; preds = %1
  %5 = load i64, ptr %2, align 8, !tbaa !18
  %6 = call noundef ptr @_ZL25mi_heap_malloc_small_zeroP9mi_heap_smb(ptr noundef %3, i64 noundef %5, i1 noundef zeroext true) #19
  ret ptr %6

7:                                                ; preds = %1
  %8 = landingpad { ptr, i32 }
          catch ptr null
  %9 = extractvalue { ptr, i32 } %8, 0
  call void @__clang_call_terminate(ptr %9) #20
  unreachable
}